Certificate:
    Data:
        Version: 3 (0x2)
        Serial Number: 17736479702072667845 (0xf624a2512ff7aec5)
    Signature Algorithm: sha1WithRSAEncryption
        Issuer: C=EU, O=UNICORE, CN=Demo CA
        Validity
            Not Before: Sep 14 09:54:22 2012 GMT
            Not After : Sep  9 09:54:22 2032 GMT
        Subject: C=EU, O=UNICORE, CN=Demo CA
        Subject Public Key Info:
            Public Key Algorithm: rsaEncryption
                Public-Key: (1024 bit)
                Modulus:
                    00:cc:1e:ce:54:34:4e:bd:40:1c:10:cb:35:54:cb:
                    cd:b1:1a:e4:5e:66:d2:76:91:df:6d:8d:ab:52:b3:
                    d5:5e:b4:e0:e8:52:c4:e3:47:1e:fb:2c:a6:4a:48:
                    12:7b:46:93:3b:a6:35:c4:9d:db:b2:54:da:b0:b9:
                    33:6c:1b:bb:03:42:f2:33:ca:73:ea:ea:71:9e:83:
                    a0:72:d8:6b:f3:d9:c2:ea:4b:70:51:c0:13:34:30:
                    ec:ad:6a:a8:cd:28:cb:05:45:8c:de:d1:9a:5a:54:
                    76:4e:01:c7:3f:18:d7:0c:5c:5c:ef:d8:ea:71:68:
                    4c:82:d2:85:12:0b:fe:0e:09
                Exponent: 65537 (0x10001)
        X509v3 extensions:
            X509v3 Subject Key Identifier: 
                F4:AF:F4:C8:6E:F0:7F:1A:54:45:88:5C:86:8D:76:D4:0C:ED:4E:5D
            X509v3 Authority Key Identifier: 
                keyid:F4:AF:F4:C8:6E:F0:7F:1A:54:45:88:5C:86:8D:76:D4:0C:ED:4E:5D

            X509v3 Basic Constraints: 
                CA:TRUE
            X509v3 Key Usage: 
                Digital Signature, Non Repudiation, Certificate Sign, CRL Sign
            Netscape Cert Type: 
                SSL CA, S/MIME CA
    Signature Algorithm: sha1WithRSAEncryption
         c5:fc:5e:5c:c4:14:d3:d7:b8:fe:34:0c:01:6c:e1:bf:e1:6b:
         51:33:16:ce:f5:43:d9:b3:f7:69:89:f8:df:ac:20:5a:66:a2:
         1c:6f:be:20:be:45:41:3f:34:a6:17:ad:a3:86:3a:f2:bd:d2:
         5a:2c:5b:fd:83:54:68:ef:95:8c:2b:73:5d:26:f0:74:fc:82:
         a3:da:95:0a:77:1d:d5:92:9a:32:28:9d:34:86:19:8c:b9:79:
         1b:59:d4:b3:6e:38:a5:73:a7:2d:32:e2:c8:b6:25:6f:0b:3c:
         77:54:2d:1c:e0:99:c2:93:12:2d:e1:51:db:6a:f3:51:1e:f9:
         ab:34
-----BEGIN CERTIFICATE-----
MIICUDCCAbmgAwIBAgIJAPYkolEv967FMA0GCSqGSIb3DQEBBQUAMDExCzAJBgNV
BAYTAkVVMRAwDgYDVQQKDAdVTklDT1JFMRAwDgYDVQQDDAdEZW1vIENBMB4XDTEy
MDkxNDA5NTQyMloXDTMyMDkwOTA5NTQyMlowMTELMAkGA1UEBhMCRVUxEDAOBgNV
BAoMB1VOSUNPUkUxEDAOBgNVBAMMB0RlbW8gQ0EwgZ8wDQYJKoZIhvcNAQEBBQAD
gY0AMIGJAoGBAMwezlQ0Tr1AHBDLNVTLzbEa5F5m0naR322Nq1Kz1V604OhSxONH
HvsspkpIEntGkzumNcSd27JU2rC5M2wbuwNC8jPKc+rqcZ6DoHLYa/PZwupLcFHA
EzQw7K1qqM0oywVFjN7RmlpUdk4Bxz8Y1wxcXO/Y6nFoTILShRIL/g4JAgMBAAGj
cDBuMB0GA1UdDgQWBBT0r/TIbvB/GlRFiFyGjXbUDO1OXTAfBgNVHSMEGDAWgBT0
r/TIbvB/GlRFiFyGjXbUDO1OXTAMBgNVHRMEBTADAQH/MAsGA1UdDwQEAwIBxjAR
BglghkgBhvhCAQEEBAMCAQYwDQYJKoZIhvcNAQEFBQADgYEAxfxeXMQU09e4/jQM
AWzhv+FrUTMWzvVD2bP3aYn436wgWmaiHG++IL5FQT80pheto4Y68r3SWixb/YNU
aO+VjCtzXSbwdPyCo9qVCncd1ZKaMiidNIYZjLl5G1nUs244pXOnLTLiyLYlbws8
d1QtHOCZwpMSLeFR22rzUR75qzQ=
-----END CERTIFICATE-----
